; Function Attrs: mustprogress nofree norecurse nosync nounwind willreturn memory(read, inaccessiblemem: none) uwtable
define noundef i64 @_ZNK6casadi16SparsityInternal9nnz_lowerEb(ptr nocapture noundef nonnull readonly align 8 dereferenceable(56) %0, i1 noundef zeroext %1) local_unnamed_addr #11 align 2 {
  %3 = getelementptr inbounds i8, ptr %0, i64 24
  %4 = load ptr, ptr %3, align 8
  %5 = getelementptr inbounds i8, ptr %4, i64 16
  %6 = getelementptr inbounds i8, ptr %4, i64 8
  %7 = load i64, ptr %6, align 8
  %8 = getelementptr inbounds i64, ptr %5, i64 %7
  %9 = getelementptr inbounds i8, ptr %8, i64 8
  %10 = icmp sgt i64 %7, 0
  br i1 %10, label %.lr.ph26.preheader, label %._crit_edge

.lr.ph26.preheader:                               ; preds = %2
  %.pre = load i64, ptr %5, align 8
  br label %.lr.ph26

.loopexit:                                        ; preds = %.lr.ph, %.lr.ph26
  %.1.lcssa = phi i64 [ %.01824, %.lr.ph26 ], [ %.2, %.lr.ph ]
  %exitcond28.not = icmp eq i64 %12, %7
  br i1 %exitcond28.not, label %._crit_edge, label %.lr.ph26, !llvm.loop !203

.lr.ph26:                                         ; preds = %.lr.ph26.preheader, %.loopexit
  %11 = phi i64 [ %14, %.loopexit ], [ %.pre, %.lr.ph26.preheader ]
  %.01725 = phi i64 [ %12, %.loopexit ], [ 0, %.lr.ph26.preheader ]
  %.01824 = phi i64 [ %.1.lcssa, %.loopexit ], [ 0, %.lr.ph26.preheader ]
  %12 = add nuw nsw i64 %.01725, 1
  %13 = getelementptr inbounds i64, ptr %5, i64 %12
  %14 = load i64, ptr %13, align 8
  %15 = icmp slt i64 %11, %14
  br i1 %15, label %.lr.ph, label %.loopexit

.lr.ph:                                           ; preds = %.lr.ph26, %.lr.ph
  %.022 = phi i64 [ %21, %.lr.ph ], [ %11, %.lr.ph26 ]
  %.121 = phi i64 [ %.2, %.lr.ph ], [ %.01824, %.lr.ph26 ]
  %16 = getelementptr inbounds i64, ptr %9, i64 %.022
  %17 = load i64, ptr %16, align 8
  %18 = icmp sge i64 %.01725, %17
  %19 = icmp ne i64 %.01725, %17
  %or.cond.not = or i1 %19, %1
  %or.cond = and i1 %18, %or.cond.not
  %not.or.cond = xor i1 %or.cond, true
  %20 = zext i1 %not.or.cond to i64
  %.2 = add nsw i64 %.121, %20
  %21 = add nsw i64 %.022, 1
  %exitcond.not = icmp eq i64 %21, %14
  br i1 %exitcond.not, label %.loopexit, label %.lr.ph, !llvm.loop !204

._crit_edge:                                      ; preds = %.loopexit, %2
  %.018.lcssa = phi i64 [ 0, %2 ], [ %.1.lcssa, %.loopexit ]
  ret i64 %.018.lcssa
}